target datalayout = "e-m:e-p270:32:32-p271:32:32-p272:64:64-i64:64-i128:128-f80:128-n8:16:32:64-S128"
target triple = "x86_64-unknown-linux-gnu"

%"class.std::__cxx11::basic_string" = type { %"struct.std::__cxx11::basic_string<char>::_Alloc_hider", i64, %union.anon }
%"struct.std::__cxx11::basic_string<char>::_Alloc_hider" = type { ptr }
%union.anon = type { i64, [8 x i8] }
%"class.httplib::detail::stream_line_reader" = type { ptr, ptr, i64, i64, %"class.std::__cxx11::basic_string" }

; Function Attrs: mustprogress nounwind uwtable
define noundef i64 @_ZNK7httplib6detail18stream_line_reader4sizeEv(ptr noundef nonnull align 8 dereferenceable(64) %this) #4 align 2 {
entry:
  %retval = alloca i64, align 8
  %this.addr = alloca ptr, align 8
  store ptr %this, ptr %this.addr, align 8
  %this1 = load ptr, ptr %this.addr, align 8
  %glowable_buffer_ = getelementptr inbounds %"class.httplib::detail::stream_line_reader", ptr %this1, i32 0, i32 4
  %call = call noundef zeroext i1 @_ZNKSt7__cxx1112basic_stringIcSt11char_traitsIcESaIcEE5emptyEv(ptr noundef nonnull align 8 dereferenceable(32) %glowable_buffer_) #3
  br i1 %call, label %if.then, label %if.else

if.then:                                          ; preds = %entry
  %fixed_buffer_used_size_ = getelementptr inbounds %"class.httplib::detail::stream_line_reader", ptr %this1, i32 0, i32 3
  %0 = load i64, ptr %fixed_buffer_used_size_, align 8
  store i64 %0, ptr %retval, align 8
  br label %return

if.else:                                          ; preds = %entry
  %glowable_buffer_2 = getelementptr inbounds %"class.httplib::detail::stream_line_reader", ptr %this1, i32 0, i32 4
  %call3 = call noundef i64 @_ZNKSt7__cxx1112basic_stringIcSt11char_traitsIcESaIcEE4sizeEv(ptr noundef nonnull align 8 dereferenceable(32) %glowable_buffer_2) #3
  store i64 %call3, ptr %retval, align 8
  br label %return

return:                                           ; preds = %if.else, %if.then
  %1 = load i64, ptr %retval, align 8
  ret i64 %1
}