; Function Attrs: mustprogress nounwind uwtable
define noundef i64 @_ZNK7httplib6detail18stream_line_reader4sizeEv(ptr noundef nonnull align 8 dereferenceable(64) %this) local_unnamed_addr #4 align 2 {
entry:
  %glowable_buffer_ = getelementptr inbounds i8, ptr %this, i64 32
  %call = tail call noundef zeroext i1 @_ZNKSt7__cxx1112basic_stringIcSt11char_traitsIcESaIcEE5emptyEv(ptr noundef nonnull align 8 dereferenceable(32) %glowable_buffer_) #37
  br i1 %call, label %if.then, label %if.else

if.then:                                          ; preds = %entry
  %fixed_buffer_used_size_ = getelementptr inbounds i8, ptr %this, i64 24
  %0 = load i64, ptr %fixed_buffer_used_size_, align 8
  br label %return

if.else:                                          ; preds = %entry
  %call3 = tail call noundef i64 @_ZNKSt7__cxx1112basic_stringIcSt11char_traitsIcESaIcEE4sizeEv(ptr noundef nonnull align 8 dereferenceable(32) %glowable_buffer_) #37
  br label %return

return:                                           ; preds = %if.else, %if.then
  %retval.0 = phi i64 [ %0, %if.then ], [ %call3, %if.else ]
  ret i64 %retval.0
}